target datalayout = "e-m:e-p270:32:32-p271:32:32-p272:64:64-i64:64-i128:128-f80:128-n8:16:32:64-S128"
target triple = "x86_64-unknown-linux-gnu"

@.str = private unnamed_addr constant [9 x i8] c"FIXPOINT\00", align 1
@.str.1 = private unnamed_addr constant [5 x i8] c"ONCE\00", align 1
@.str.2 = private unnamed_addr constant [20 x i8] c"TConvPolicy:unknown\00", align 1

; Function Attrs: mustprogress uwtable
define hidden noundef nonnull align 8 dereferenceable(8) ptr @_ZN4cvc58internallsERSoNS0_11TConvPolicyE(ptr noundef nonnull align 8 dereferenceable(8) %out, i32 noundef %tcpol) #4 {
entry:
  %out.addr = alloca ptr, align 8
  %tcpol.addr = alloca i32, align 4
  store ptr %out, ptr %out.addr, align 8
  store i32 %tcpol, ptr %tcpol.addr, align 4
  %0 = load i32, ptr %tcpol.addr, align 4
  switch i32 %0, label %sw.default [
    i32 0, label %sw.bb
    i32 1, label %sw.bb1
  ]

sw.bb:                                            ; preds = %entry
  %1 = load ptr, ptr %out.addr, align 8
  %call = call noundef nonnull align 8 dereferenceable(8) ptr @_ZStlsISt11char_traitsIcEERSt13basic_ostreamIcT_ES5_PKc(ptr noundef nonnull align 8 dereferenceable(8) %1, ptr noundef @.str)
  br label %sw.epilog

sw.bb1:                                           ; preds = %entry
  %2 = load ptr, ptr %out.addr, align 8
  %call2 = call noundef nonnull align 8 dereferenceable(8) ptr @_ZStlsISt11char_traitsIcEERSt13basic_ostreamIcT_ES5_PKc(ptr noundef nonnull align 8 dereferenceable(8) %2, ptr noundef @.str.1)
  br label %sw.epilog

sw.default:                                       ; preds = %entry
  %3 = load ptr, ptr %out.addr, align 8
  %call3 = call noundef nonnull align 8 dereferenceable(8) ptr @_ZStlsISt11char_traitsIcEERSt13basic_ostreamIcT_ES5_PKc(ptr noundef nonnull align 8 dereferenceable(8) %3, ptr noundef @.str.2)
  br label %sw.epilog

sw.epilog:                                        ; preds = %sw.default, %sw.bb1, %sw.bb
  %4 = load ptr, ptr %out.addr, align 8
  ret ptr %4
}