; Function Attrs: mustprogress uwtable
define hidden noundef nonnull align 8 dereferenceable(8) ptr @_ZN4cvc58internallsERSoNS0_11TConvPolicyE(ptr noundef nonnull returned align 8 dereferenceable(8) %out, i32 noundef %tcpol) local_unnamed_addr #3 {
entry:
  %switch.selectcmp = icmp eq i32 %tcpol, 1
  %switch.select = select i1 %switch.selectcmp, ptr @.str.1, ptr @.str.2
  %switch.selectcmp4 = icmp eq i32 %tcpol, 0
  %switch.select5 = select i1 %switch.selectcmp4, ptr @.str, ptr %switch.select
  %call3 = tail call noundef nonnull align 8 dereferenceable(8) ptr @_ZStlsISt11char_traitsIcEERSt13basic_ostreamIcT_ES5_PKc(ptr noundef nonnull align 8 dereferenceable(8) %out, ptr noundef nonnull %switch.select5)
  ret ptr %out
}